; Function Attrs: nounwind sspstrong uwtable
define internal fastcc void @CLOSE_BRACKET_WITHOUT_ESC_WARN(ptr noundef readonly captures(none) %0) unnamed_addr #5 {
  %2 = load ptr, ptr @onig_warn, align 8, !tbaa !7
  %3 = icmp eq ptr %2, @onig_null_warn
  br i1 %3, label %11, label %4

4:                                                ; preds = %1
  %5 = getelementptr inbounds nuw i8, ptr %0, i64 16
  %6 = load ptr, ptr %5, align 8, !tbaa !85
  %7 = getelementptr inbounds nuw i8, ptr %6, i64 8
  %8 = load i32, ptr %7, align 4, !tbaa !58
  %9 = and i32 %8, 16777216
  %.not = icmp eq i32 %9, 0
  br i1 %.not, label %11, label %10

10:                                               ; preds = %4
  tail call void (ptr, ptr, ...) @onig_syntax_warn(ptr noundef nonnull %0, ptr noundef nonnull @.str.6, ptr noundef nonnull @.str.3)
  br label %11

11:                                               ; preds = %1, %10, %4
  ret void
}